target datalayout = "e-m:e-p270:32:32-p271:32:32-p272:64:64-i64:64-i128:128-f80:128-n8:16:32:64-S128"
target triple = "x86_64-pc-linux-gnu"

%struct.timespec = type { i64, i64 }

; Function Attrs: mustprogress nounwind uwtable
define hidden noundef i64 @_ZN2os5Linux20fast_thread_cpu_timeEi(i32 noundef %0) #1 align 2 {
  %2 = alloca i32, align 4
  %3 = alloca %struct.timespec, align 8
  %4 = alloca i32, align 4
  store i32 %0, ptr %2, align 4
  %5 = load i32, ptr %2, align 4
  %6 = call i32 @clock_gettime(i32 noundef %5, ptr noundef %3) #12
  store i32 %6, ptr %4, align 4
  %7 = getelementptr inbounds %struct.timespec, ptr %3, i32 0, i32 0
  %8 = load i64, ptr %7, align 8
  %9 = mul nsw i64 %8, 1000000000
  %10 = getelementptr inbounds %struct.timespec, ptr %3, i32 0, i32 1
  %11 = load i64, ptr %10, align 8
  %12 = add nsw i64 %9, %11
  ret i64 %12
}