; Function Attrs: mustprogress nounwind uwtable
define hidden noundef i64 @_ZN2os5Linux20fast_thread_cpu_timeEi(i32 noundef %0) local_unnamed_addr #0 align 2 {
  %2 = alloca %struct.timespec, align 8
  %3 = call i32 @clock_gettime(i32 noundef %0, ptr noundef nonnull %2) #26
  %4 = load i64, ptr %2, align 8
  %5 = mul nsw i64 %4, 1000000000
  %6 = getelementptr inbounds i8, ptr %2, i64 8
  %7 = load i64, ptr %6, align 8
  %8 = add nsw i64 %5, %7
  ret i64 %8
}